target datalayout = "e-m:e-p270:32:32-p271:32:32-p272:64:64-i64:64-i128:128-f80:128-n8:16:32:64-S128"
target triple = "x86_64-pc-linux-gnu"

%class.RegMask = type { %union.anon, i32, i32 }
%union.anon = type { [11 x i64] }

@_ZL8low_bits = internal constant [5 x i64] [i64 6148914691236517205, i64 1229782938247303441, i64 72340172838076673, i64 0, i64 281479271743489], align 16

; Function Attrs: mustprogress nounwind uwtable
define hidden void @_ZN7RegMask13clear_to_setsEj(ptr noundef nonnull align 8 dereferenceable(96) %0, i32 noundef %1) #1 align 2 {
  %3 = alloca ptr, align 8
  %4 = alloca i32, align 4
  %5 = alloca i64, align 8
  %6 = alloca i32, align 4
  %7 = alloca i64, align 8
  %8 = alloca i64, align 8
  %9 = alloca i32, align 4
  store ptr %0, ptr %3, align 8
  store i32 %1, ptr %4, align 4
  %10 = load ptr, ptr %3, align 8
  %11 = load i32, ptr %4, align 4
  %12 = icmp eq i32 %11, 1
  br i1 %12, label %13, label %14

13:                                               ; preds = %2
  br label %85

14:                                               ; preds = %2
  %15 = load i32, ptr %4, align 4
  %16 = lshr i32 %15, 2
  %17 = zext i32 %16 to i64
  %18 = getelementptr inbounds [5 x i64], ptr @_ZL8low_bits, i64 0, i64 %17
  %19 = load i64, ptr %18, align 8
  store i64 %19, ptr %5, align 8
  %20 = getelementptr inbounds %class.RegMask, ptr %10, i32 0, i32 1
  %21 = load i32, ptr %20, align 8
  store i32 %21, ptr %6, align 4
  br label %22

22:                                               ; preds = %82, %14
  %23 = load i32, ptr %6, align 4
  %24 = getelementptr inbounds %class.RegMask, ptr %10, i32 0, i32 2
  %25 = load i32, ptr %24, align 4
  %26 = icmp ule i32 %23, %25
  br i1 %26, label %27, label %85

27:                                               ; preds = %22
  %28 = getelementptr inbounds %class.RegMask, ptr %10, i32 0, i32 0
  %29 = load i32, ptr %6, align 4
  %30 = zext i32 %29 to i64
  %31 = getelementptr inbounds [11 x i64], ptr %28, i64 0, i64 %30
  %32 = load i64, ptr %31, align 8
  store i64 %32, ptr %7, align 8
  %33 = load i64, ptr %7, align 8
  %34 = load i64, ptr %5, align 8
  %35 = and i64 %33, %34
  store i64 %35, ptr %8, align 8
  store i32 1, ptr %9, align 4
  br label %36

36:                                               ; preds = %45, %27
  %37 = load i32, ptr %9, align 4
  %38 = load i32, ptr %4, align 4
  %39 = icmp ult i32 %37, %38
  br i1 %39, label %40, label %48

40:                                               ; preds = %36
  %41 = load i64, ptr %7, align 8
  %42 = load i64, ptr %8, align 8
  %43 = shl i64 %42, 1
  %44 = and i64 %41, %43
  store i64 %44, ptr %8, align 8
  br label %45

45:                                               ; preds = %40
  %46 = load i32, ptr %9, align 4
  %47 = add i32 %46, 1
  store i32 %47, ptr %9, align 4
  br label %36, !llvm.loop !21

48:                                               ; preds = %36
  %49 = load i64, ptr %8, align 8
  %50 = lshr i64 %49, 1
  %51 = load i64, ptr %8, align 8
  %52 = or i64 %51, %50
  store i64 %52, ptr %8, align 8
  %53 = load i32, ptr %4, align 4
  %54 = icmp ugt i32 %53, 2
  br i1 %54, label %55, label %76

55:                                               ; preds = %48
  %56 = load i64, ptr %8, align 8
  %57 = lshr i64 %56, 2
  %58 = load i64, ptr %8, align 8
  %59 = or i64 %58, %57
  store i64 %59, ptr %8, align 8
  %60 = load i32, ptr %4, align 4
  %61 = icmp ugt i32 %60, 4
  br i1 %61, label %62, label %75

62:                                               ; preds = %55
  %63 = load i64, ptr %8, align 8
  %64 = lshr i64 %63, 4
  %65 = load i64, ptr %8, align 8
  %66 = or i64 %65, %64
  store i64 %66, ptr %8, align 8
  %67 = load i32, ptr %4, align 4
  %68 = icmp ugt i32 %67, 8
  br i1 %68, label %69, label %74

69:                                               ; preds = %62
  %70 = load i64, ptr %8, align 8
  %71 = lshr i64 %70, 8
  %72 = load i64, ptr %8, align 8
  %73 = or i64 %72, %71
  store i64 %73, ptr %8, align 8
  br label %74

74:                                               ; preds = %69, %62
  br label %75

75:                                               ; preds = %74, %55
  br label %76

76:                                               ; preds = %75, %48
  %77 = load i64, ptr %8, align 8
  %78 = getelementptr inbounds %class.RegMask, ptr %10, i32 0, i32 0
  %79 = load i32, ptr %6, align 4
  %80 = zext i32 %79 to i64
  %81 = getelementptr inbounds [11 x i64], ptr %78, i64 0, i64 %80
  store i64 %77, ptr %81, align 8
  br label %82

82:                                               ; preds = %76
  %83 = load i32, ptr %6, align 4
  %84 = add i32 %83, 1
  store i32 %84, ptr %6, align 4
  br label %22, !llvm.loop !22

85:                                               ; preds = %22, %13
  ret void
}