; Function Attrs: mustprogress nofree norecurse nosync nounwind memory(argmem: readwrite) uwtable
define hidden void @_ZN7RegMask13clear_to_setsEj(ptr nocapture noundef nonnull align 8 dereferenceable(96) %0, i32 noundef %1) local_unnamed_addr #1 align 2 {
  %3 = icmp eq i32 %1, 1
  br i1 %3, label %.loopexit, label %4

4:                                                ; preds = %2
  %5 = lshr i32 %1, 2
  %6 = zext nneg i32 %5 to i64
  %7 = getelementptr inbounds [5 x i64], ptr @_ZL8low_bits, i64 0, i64 %6
  %8 = load i64, ptr %7, align 8
  %9 = getelementptr inbounds i8, ptr %0, i64 88
  %10 = load i32, ptr %9, align 8
  %11 = getelementptr inbounds i8, ptr %0, i64 92
  %12 = load i32, ptr %11, align 4
  %.not31 = icmp ugt i32 %10, %12
  br i1 %.not31, label %.loopexit, label %.lr.ph34

.lr.ph34:                                         ; preds = %4
  %13 = icmp ugt i32 %1, 2
  %14 = icmp ugt i32 %1, 4
  %15 = icmp ugt i32 %1, 8
  br i1 %13, label %.lr.ph.us.us, label %.lr.ph34.split

.lr.ph.us.us:                                     ; preds = %.lr.ph34, %25
  %.02632.us.us = phi i32 [ %26, %25 ], [ %10, %.lr.ph34 ]
  %16 = zext i32 %.02632.us.us to i64
  %17 = getelementptr inbounds [11 x i64], ptr %0, i64 0, i64 %16
  %18 = load i64, ptr %17, align 8
  %.02528.us.us = and i64 %8, %18
  br label %28

19:                                               ; preds = %._crit_edge.us.us
  %20 = lshr i64 %34, 4
  %21 = or i64 %20, %34
  br i1 %15, label %22, label %25

22:                                               ; preds = %19
  %23 = lshr i64 %21, 8
  %24 = or i64 %23, %21
  br label %25

25:                                               ; preds = %22, %19, %._crit_edge.us.us
  %.1.us.us = phi i64 [ %24, %22 ], [ %21, %19 ], [ %34, %._crit_edge.us.us ]
  store i64 %.1.us.us, ptr %17, align 8
  %26 = add i32 %.02632.us.us, 1
  %27 = load i32, ptr %11, align 4
  %.not.us.us = icmp ugt i32 %26, %27
  br i1 %.not.us.us, label %.loopexit, label %.lr.ph.us.us, !llvm.loop !19

28:                                               ; preds = %.lr.ph.us.us, %28
  %.02530.us.us = phi i64 [ %.02528.us.us, %.lr.ph.us.us ], [ %.025.us.us, %28 ]
  %.029.us.us = phi i32 [ 1, %.lr.ph.us.us ], [ %30, %28 ]
  %29 = shl i64 %.02530.us.us, 1
  %30 = add nuw i32 %.029.us.us, 1
  %.025.us.us = and i64 %29, %18
  %exitcond52.not = icmp eq i32 %30, %1
  br i1 %exitcond52.not, label %._crit_edge.us.us, label %28, !llvm.loop !20

._crit_edge.us.us:                                ; preds = %28
  %31 = lshr exact i64 %.025.us.us, 1
  %32 = or i64 %31, %.025.us.us
  %33 = lshr i64 %32, 2
  %34 = or i64 %33, %32
  br i1 %14, label %19, label %25

.lr.ph34.split:                                   ; preds = %.lr.ph34
  %.not49 = icmp eq i32 %1, 0
  br i1 %.not49, label %.lr.ph34.split.split, label %.lr.ph.us42

.lr.ph.us42:                                      ; preds = %.lr.ph34.split, %._crit_edge.us43
  %.02632.us35 = phi i32 [ %43, %._crit_edge.us43 ], [ %10, %.lr.ph34.split ]
  %35 = zext i32 %.02632.us35 to i64
  %36 = getelementptr inbounds [11 x i64], ptr %0, i64 0, i64 %35
  %37 = load i64, ptr %36, align 8
  %.02528.us36 = and i64 %8, %37
  br label %38

38:                                               ; preds = %.lr.ph.us42, %38
  %.02530.us39 = phi i64 [ %.02528.us36, %.lr.ph.us42 ], [ %.025.us41, %38 ]
  %.029.us40 = phi i32 [ 1, %.lr.ph.us42 ], [ %40, %38 ]
  %39 = shl i64 %.02530.us39, 1
  %40 = add nuw i32 %.029.us40, 1
  %.025.us41 = and i64 %39, %37
  %exitcond.not = icmp eq i32 %40, %1
  br i1 %exitcond.not, label %._crit_edge.us43, label %38, !llvm.loop !20

._crit_edge.us43:                                 ; preds = %38
  %41 = lshr exact i64 %.025.us41, 1
  %42 = or i64 %41, %.025.us41
  store i64 %42, ptr %36, align 8
  %43 = add i32 %.02632.us35, 1
  %44 = load i32, ptr %11, align 4
  %.not.us38 = icmp ugt i32 %43, %44
  br i1 %.not.us38, label %.loopexit, label %.lr.ph.us42, !llvm.loop !19

.lr.ph34.split.split:                             ; preds = %.lr.ph34.split, %.lr.ph34.split.split
  %.02632 = phi i32 [ %50, %.lr.ph34.split.split ], [ %10, %.lr.ph34.split ]
  %45 = zext i32 %.02632 to i64
  %46 = getelementptr inbounds [11 x i64], ptr %0, i64 0, i64 %45
  %47 = load i64, ptr %46, align 8
  %.02528 = and i64 %8, %47
  %48 = lshr i64 %.02528, 1
  %49 = or i64 %48, %.02528
  store i64 %49, ptr %46, align 8
  %50 = add i32 %.02632, 1
  %51 = load i32, ptr %11, align 4
  %.not = icmp ugt i32 %50, %51
  br i1 %.not, label %.loopexit, label %.lr.ph34.split.split, !llvm.loop !19

.loopexit:                                        ; preds = %._crit_edge.us43, %.lr.ph34.split.split, %25, %4, %2
  ret void
}